target datalayout = "e-m:e-p270:32:32-p271:32:32-p272:64:64-i64:64-i128:128-f80:128-n8:16:32:64-S128"
target triple = "x86_64-pc-linux-gnu"

%struct.lua_TValue = type { %union.Value, [1 x i32], i32 }
%union.Value = type { ptr }
%struct.lua_Debug = type { ptr, ptr, ptr, ptr, i32, i32, i8, i8, i8, ptr, [256 x i8] }
%struct.lua_State = type { i8, i8, i8, i8, i8, i8, i8, ptr, ptr, ptr, ptr, ptr, ptr, ptr, ptr, i32, i32, i16, i16, i32, ptr, ptr, ptr, ptr, ptr }
%struct.CallInfo = type { ptr, ptr, ptr, ptr, i32, i32 }
%struct.Closure = type { i8, i8, i8, i8, i8, i8, i8, ptr, ptr, %union.anon.0 }
%union.anon.0 = type { %struct.anon }
%struct.anon = type { ptr, ptr, ptr, [1 x %struct.lua_TValue] }
%struct.anon.1 = type { ptr, [1 x %struct.lua_TValue] }
%struct.Proto = type { i8, i8, i8, i8, i8, i8, i8, i8, ptr, ptr, ptr, ptr, ptr, i64, ptr, ptr, ptr, ptr, ptr, ptr, ptr, ptr, ptr, ptr, i32, i32, i32, i32, i32, i32, i32, i32, i32, i32 }

; Function Attrs: mustprogress noinline uwtable
define hidden void @_Z13luau_callhookP9lua_StatePFvS0_P9lua_DebugEPv(ptr noundef %0, ptr noundef %1, ptr noundef %2) #0 {
  %4 = alloca ptr, align 8
  %5 = alloca ptr, align 8
  %6 = alloca ptr, align 8
  %7 = alloca i64, align 8
  %8 = alloca i64, align 8
  %9 = alloca i64, align 8
  %10 = alloca i32, align 4
  %11 = alloca ptr, align 8
  %12 = alloca %struct.lua_Debug, align 8
  store ptr %0, ptr %4, align 8, !tbaa !4
  store ptr %1, ptr %5, align 8, !tbaa !9
  store ptr %2, ptr %6, align 8, !tbaa !9
  call void @llvm.lifetime.start.p0(i64 8, ptr %7) #11
  %13 = load ptr, ptr %4, align 8, !tbaa !4
  %14 = getelementptr inbounds nuw %struct.lua_State, ptr %13, i32 0, i32 8
  %15 = load ptr, ptr %14, align 8, !tbaa !10
  %16 = load ptr, ptr %4, align 8, !tbaa !4
  %17 = getelementptr inbounds nuw %struct.lua_State, ptr %16, i32 0, i32 12
  %18 = load ptr, ptr %17, align 8, !tbaa !22
  %19 = ptrtoint ptr %15 to i64
  %20 = ptrtoint ptr %18 to i64
  %21 = sub i64 %19, %20
  store i64 %21, ptr %7, align 8, !tbaa !23
  call void @llvm.lifetime.start.p0(i64 8, ptr %8) #11
  %22 = load ptr, ptr %4, align 8, !tbaa !4
  %23 = getelementptr inbounds nuw %struct.lua_State, ptr %22, i32 0, i32 7
  %24 = load ptr, ptr %23, align 8, !tbaa !25
  %25 = load ptr, ptr %4, align 8, !tbaa !4
  %26 = getelementptr inbounds nuw %struct.lua_State, ptr %25, i32 0, i32 12
  %27 = load ptr, ptr %26, align 8, !tbaa !22
  %28 = ptrtoint ptr %24 to i64
  %29 = ptrtoint ptr %27 to i64
  %30 = sub i64 %28, %29
  store i64 %30, ptr %8, align 8, !tbaa !23
  call void @llvm.lifetime.start.p0(i64 8, ptr %9) #11
  %31 = load ptr, ptr %4, align 8, !tbaa !4
  %32 = getelementptr inbounds nuw %struct.lua_State, ptr %31, i32 0, i32 10
  %33 = load ptr, ptr %32, align 8, !tbaa !26
  %34 = getelementptr inbounds nuw %struct.CallInfo, ptr %33, i32 0, i32 2
  %35 = load ptr, ptr %34, align 8, !tbaa !27
  %36 = load ptr, ptr %4, align 8, !tbaa !4
  %37 = getelementptr inbounds nuw %struct.lua_State, ptr %36, i32 0, i32 12
  %38 = load ptr, ptr %37, align 8, !tbaa !22
  %39 = ptrtoint ptr %35 to i64
  %40 = ptrtoint ptr %38 to i64
  %41 = sub i64 %39, %40
  store i64 %41, ptr %9, align 8, !tbaa !23
  call void @llvm.lifetime.start.p0(i64 4, ptr %10) #11
  %42 = load ptr, ptr %4, align 8, !tbaa !4
  %43 = getelementptr inbounds nuw %struct.lua_State, ptr %42, i32 0, i32 3
  %44 = load i8, ptr %43, align 1, !tbaa !30
  %45 = zext i8 %44 to i32
  store i32 %45, ptr %10, align 4, !tbaa !31
  %46 = load i32, ptr %10, align 4, !tbaa !31
  %47 = icmp eq i32 %46, 1
  br i1 %47, label %51, label %48

48:                                               ; preds = %3
  %49 = load i32, ptr %10, align 4, !tbaa !31
  %50 = icmp eq i32 %49, 6
  br i1 %50, label %51, label %61

51:                                               ; preds = %48, %3
  %52 = load ptr, ptr %4, align 8, !tbaa !4
  %53 = getelementptr inbounds nuw %struct.lua_State, ptr %52, i32 0, i32 3
  store i8 0, ptr %53, align 1, !tbaa !30
  %54 = load ptr, ptr %4, align 8, !tbaa !4
  %55 = getelementptr inbounds nuw %struct.lua_State, ptr %54, i32 0, i32 10
  %56 = load ptr, ptr %55, align 8, !tbaa !26
  %57 = getelementptr inbounds nuw %struct.CallInfo, ptr %56, i32 0, i32 0
  %58 = load ptr, ptr %57, align 8, !tbaa !32
  %59 = load ptr, ptr %4, align 8, !tbaa !4
  %60 = getelementptr inbounds nuw %struct.lua_State, ptr %59, i32 0, i32 8
  store ptr %58, ptr %60, align 8, !tbaa !10
  br label %61

61:                                               ; preds = %51, %48
  %62 = load ptr, ptr %4, align 8, !tbaa !4
  %63 = getelementptr inbounds nuw %struct.lua_State, ptr %62, i32 0, i32 10
  %64 = load ptr, ptr %63, align 8, !tbaa !26
  %65 = getelementptr inbounds nuw %struct.CallInfo, ptr %64, i32 0, i32 3
  %66 = load ptr, ptr %65, align 8, !tbaa !33
  %67 = icmp ne ptr %66, null
  br i1 %67, label %68, label %75

68:                                               ; preds = %61
  %69 = load ptr, ptr %4, align 8, !tbaa !4
  %70 = getelementptr inbounds nuw %struct.lua_State, ptr %69, i32 0, i32 10
  %71 = load ptr, ptr %70, align 8, !tbaa !26
  %72 = getelementptr inbounds nuw %struct.CallInfo, ptr %71, i32 0, i32 3
  %73 = load ptr, ptr %72, align 8, !tbaa !33
  %74 = getelementptr inbounds nuw i32, ptr %73, i32 1
  store ptr %74, ptr %72, align 8, !tbaa !33
  br label %75

75:                                               ; preds = %68, %61
  %76 = load ptr, ptr %4, align 8, !tbaa !4
  %77 = getelementptr inbounds nuw %struct.lua_State, ptr %76, i32 0, i32 11
  %78 = load ptr, ptr %77, align 8, !tbaa !34
  %79 = load ptr, ptr %4, align 8, !tbaa !4
  %80 = getelementptr inbounds nuw %struct.lua_State, ptr %79, i32 0, i32 7
  %81 = load ptr, ptr %80, align 8, !tbaa !25
  %82 = ptrtoint ptr %78 to i64
  %83 = ptrtoint ptr %81 to i64
  %84 = sub i64 %82, %83
  %85 = icmp sle i64 %84, 320
  br i1 %85, label %86, label %88

86:                                               ; preds = %75
  %87 = load ptr, ptr %4, align 8, !tbaa !4
  call void @_Z14luaD_growstackP9lua_Statei(ptr noundef %87, i32 noundef 20)
  br label %89

88:                                               ; preds = %75
  br label %89

89:                                               ; preds = %88, %86
  %90 = load ptr, ptr %4, align 8, !tbaa !4
  %91 = getelementptr inbounds nuw %struct.lua_State, ptr %90, i32 0, i32 7
  %92 = load ptr, ptr %91, align 8, !tbaa !25
  %93 = getelementptr inbounds %struct.lua_TValue, ptr %92, i64 20
  %94 = load ptr, ptr %4, align 8, !tbaa !4
  %95 = getelementptr inbounds nuw %struct.lua_State, ptr %94, i32 0, i32 10
  %96 = load ptr, ptr %95, align 8, !tbaa !26
  %97 = getelementptr inbounds nuw %struct.CallInfo, ptr %96, i32 0, i32 2
  store ptr %93, ptr %97, align 8, !tbaa !27
  call void @llvm.lifetime.start.p0(i64 8, ptr %11) #11
  %98 = load ptr, ptr %4, align 8, !tbaa !4
  %99 = getelementptr inbounds nuw %struct.lua_State, ptr %98, i32 0, i32 10
  %100 = load ptr, ptr %99, align 8, !tbaa !26
  %101 = getelementptr inbounds nuw %struct.CallInfo, ptr %100, i32 0, i32 1
  %102 = load ptr, ptr %101, align 8, !tbaa !35
  %103 = getelementptr inbounds nuw %struct.lua_TValue, ptr %102, i32 0, i32 0
  %104 = load ptr, ptr %103, align 8, !tbaa !36
  store ptr %104, ptr %11, align 8, !tbaa !37
  call void @llvm.lifetime.start.p0(i64 312, ptr %12) #11
  %105 = load ptr, ptr %11, align 8, !tbaa !37
  %106 = getelementptr inbounds nuw %struct.Closure, ptr %105, i32 0, i32 3
  %107 = load i8, ptr %106, align 1, !tbaa !39
  %108 = icmp ne i8 %107, 0
  br i1 %108, label %109, label %110

109:                                              ; preds = %89
  br label %143

110:                                              ; preds = %89
  %111 = load ptr, ptr %11, align 8, !tbaa !37
  %112 = getelementptr inbounds nuw %struct.Closure, ptr %111, i32 0, i32 9
  %113 = getelementptr inbounds nuw %struct.anon.1, ptr %112, i32 0, i32 0
  %114 = load ptr, ptr %113, align 8, !tbaa !36
  %115 = load ptr, ptr %4, align 8, !tbaa !4
  %116 = getelementptr inbounds nuw %struct.lua_State, ptr %115, i32 0, i32 10
  %117 = load ptr, ptr %116, align 8, !tbaa !26
  %118 = getelementptr inbounds nuw %struct.CallInfo, ptr %117, i32 0, i32 3
  %119 = load ptr, ptr %118, align 8, !tbaa !33
  %120 = icmp ne ptr %119, null
  br i1 %120, label %121, label %139

121:                                              ; preds = %110
  %122 = load ptr, ptr %4, align 8, !tbaa !4
  %123 = getelementptr inbounds nuw %struct.lua_State, ptr %122, i32 0, i32 10
  %124 = load ptr, ptr %123, align 8, !tbaa !26
  %125 = getelementptr inbounds nuw %struct.CallInfo, ptr %124, i32 0, i32 3
  %126 = load ptr, ptr %125, align 8, !tbaa !33
  %127 = load ptr, ptr %11, align 8, !tbaa !37
  %128 = getelementptr inbounds nuw %struct.Closure, ptr %127, i32 0, i32 9
  %129 = getelementptr inbounds nuw %struct.anon.1, ptr %128, i32 0, i32 0
  %130 = load ptr, ptr %129, align 8, !tbaa !36
  %131 = getelementptr inbounds nuw %struct.Proto, ptr %130, i32 0, i32 9
  %132 = load ptr, ptr %131, align 8, !tbaa !41
  %133 = ptrtoint ptr %126 to i64
  %134 = ptrtoint ptr %132 to i64
  %135 = sub i64 %133, %134
  %136 = sdiv exact i64 %135, 4
  %137 = trunc i64 %136 to i32
  %138 = sub nsw i32 %137, 1
  br label %140

139:                                              ; preds = %110
  br label %140

140:                                              ; preds = %139, %121
  %141 = phi i32 [ %138, %121 ], [ 0, %139 ]
  %142 = call noundef i32 @_Z12luaG_getlineP5Protoi(ptr noundef %114, i32 noundef %141)
  br label %143

143:                                              ; preds = %140, %109
  %144 = phi i32 [ -1, %109 ], [ %142, %140 ]
  %145 = getelementptr inbounds nuw %struct.lua_Debug, ptr %12, i32 0, i32 5
  store i32 %144, ptr %145, align 4, !tbaa !48
  %146 = load ptr, ptr %6, align 8, !tbaa !9
  %147 = getelementptr inbounds nuw %struct.lua_Debug, ptr %12, i32 0, i32 9
  store ptr %146, ptr %147, align 8, !tbaa !50
  %148 = load ptr, ptr %5, align 8, !tbaa !9
  %149 = load ptr, ptr %4, align 8, !tbaa !4
  call void %148(ptr noundef %149, ptr noundef %12)
  %150 = load ptr, ptr %4, align 8, !tbaa !4
  %151 = getelementptr inbounds nuw %struct.lua_State, ptr %150, i32 0, i32 10
  %152 = load ptr, ptr %151, align 8, !tbaa !26
  %153 = getelementptr inbounds nuw %struct.CallInfo, ptr %152, i32 0, i32 3
  %154 = load ptr, ptr %153, align 8, !tbaa !33
  %155 = icmp ne ptr %154, null
  br i1 %155, label %156, label %163

156:                                              ; preds = %143
  %157 = load ptr, ptr %4, align 8, !tbaa !4
  %158 = getelementptr inbounds nuw %struct.lua_State, ptr %157, i32 0, i32 10
  %159 = load ptr, ptr %158, align 8, !tbaa !26
  %160 = getelementptr inbounds nuw %struct.CallInfo, ptr %159, i32 0, i32 3
  %161 = load ptr, ptr %160, align 8, !tbaa !33
  %162 = getelementptr inbounds i32, ptr %161, i32 -1
  store ptr %162, ptr %160, align 8, !tbaa !33
  br label %163

163:                                              ; preds = %156, %143
  %164 = load ptr, ptr %4, align 8, !tbaa !4
  %165 = getelementptr inbounds nuw %struct.lua_State, ptr %164, i32 0, i32 12
  %166 = load ptr, ptr %165, align 8, !tbaa !22
  %167 = load i64, ptr %9, align 8, !tbaa !23
  %168 = getelementptr inbounds i8, ptr %166, i64 %167
  %169 = load ptr, ptr %4, align 8, !tbaa !4
  %170 = getelementptr inbounds nuw %struct.lua_State, ptr %169, i32 0, i32 10
  %171 = load ptr, ptr %170, align 8, !tbaa !26
  %172 = getelementptr inbounds nuw %struct.CallInfo, ptr %171, i32 0, i32 2
  store ptr %168, ptr %172, align 8, !tbaa !27
  %173 = load ptr, ptr %4, align 8, !tbaa !4
  %174 = getelementptr inbounds nuw %struct.lua_State, ptr %173, i32 0, i32 12
  %175 = load ptr, ptr %174, align 8, !tbaa !22
  %176 = load i64, ptr %8, align 8, !tbaa !23
  %177 = getelementptr inbounds i8, ptr %175, i64 %176
  %178 = load ptr, ptr %4, align 8, !tbaa !4
  %179 = getelementptr inbounds nuw %struct.lua_State, ptr %178, i32 0, i32 7
  store ptr %177, ptr %179, align 8, !tbaa !25
  %180 = load i32, ptr %10, align 4, !tbaa !31
  %181 = icmp eq i32 %180, 1
  br i1 %181, label %182, label %198

182:                                              ; preds = %163
  %183 = load ptr, ptr %4, align 8, !tbaa !4
  %184 = getelementptr inbounds nuw %struct.lua_State, ptr %183, i32 0, i32 3
  %185 = load i8, ptr %184, align 1, !tbaa !30
  %186 = zext i8 %185 to i32
  %187 = icmp ne i32 %186, 1
  br i1 %187, label %188, label %198

188:                                              ; preds = %182
  %189 = load ptr, ptr %4, align 8, !tbaa !4
  %190 = getelementptr inbounds nuw %struct.lua_State, ptr %189, i32 0, i32 3
  store i8 1, ptr %190, align 1, !tbaa !30
  %191 = load ptr, ptr %4, align 8, !tbaa !4
  %192 = getelementptr inbounds nuw %struct.lua_State, ptr %191, i32 0, i32 12
  %193 = load ptr, ptr %192, align 8, !tbaa !22
  %194 = load i64, ptr %7, align 8, !tbaa !23
  %195 = getelementptr inbounds i8, ptr %193, i64 %194
  %196 = load ptr, ptr %4, align 8, !tbaa !4
  %197 = getelementptr inbounds nuw %struct.lua_State, ptr %196, i32 0, i32 8
  store ptr %195, ptr %197, align 8, !tbaa !10
  br label %212

198:                                              ; preds = %182, %163
  %199 = load i32, ptr %10, align 4, !tbaa !31
  %200 = icmp eq i32 %199, 6
  br i1 %200, label %201, label %211

201:                                              ; preds = %198
  %202 = load ptr, ptr %4, align 8, !tbaa !4
  %203 = getelementptr inbounds nuw %struct.lua_State, ptr %202, i32 0, i32 3
  store i8 6, ptr %203, align 1, !tbaa !30
  %204 = load ptr, ptr %4, align 8, !tbaa !4
  %205 = getelementptr inbounds nuw %struct.lua_State, ptr %204, i32 0, i32 12
  %206 = load ptr, ptr %205, align 8, !tbaa !22
  %207 = load i64, ptr %7, align 8, !tbaa !23
  %208 = getelementptr inbounds i8, ptr %206, i64 %207
  %209 = load ptr, ptr %4, align 8, !tbaa !4
  %210 = getelementptr inbounds nuw %struct.lua_State, ptr %209, i32 0, i32 8
  store ptr %208, ptr %210, align 8, !tbaa !10
  br label %211

211:                                              ; preds = %201, %198
  br label %212

212:                                              ; preds = %211, %188
  call void @llvm.lifetime.end.p0(i64 312, ptr %12) #11
  call void @llvm.lifetime.end.p0(i64 8, ptr %11) #11
  call void @llvm.lifetime.end.p0(i64 4, ptr %10) #11
  call void @llvm.lifetime.end.p0(i64 8, ptr %9) #11
  call void @llvm.lifetime.end.p0(i64 8, ptr %8) #11
  call void @llvm.lifetime.end.p0(i64 8, ptr %7) #11
  ret void
}