; Function Attrs: mustprogress noinline uwtable
define hidden void @_Z13luau_callhookP9lua_StatePFvS0_P9lua_DebugEPv(ptr noundef %0, ptr noundef readonly captures(none) %1, ptr noundef %2) local_unnamed_addr #0 {
  %4 = alloca %struct.lua_Debug, align 8
  %5 = getelementptr inbounds nuw i8, ptr %0, i64 16
  %6 = load ptr, ptr %5, align 8, !tbaa !4
  %7 = getelementptr inbounds nuw i8, ptr %0, i64 48
  %8 = load ptr, ptr %7, align 8, !tbaa !19
  %9 = ptrtoint ptr %6 to i64
  %10 = ptrtoint ptr %8 to i64
  %11 = sub i64 %9, %10
  %12 = getelementptr inbounds nuw i8, ptr %0, i64 8
  %13 = load ptr, ptr %12, align 8, !tbaa !20
  %14 = ptrtoint ptr %13 to i64
  %15 = sub i64 %14, %10
  %16 = getelementptr inbounds nuw i8, ptr %0, i64 32
  %17 = load ptr, ptr %16, align 8, !tbaa !21
  %18 = getelementptr inbounds nuw i8, ptr %17, i64 16
  %19 = load ptr, ptr %18, align 8, !tbaa !22
  %20 = ptrtoint ptr %19 to i64
  %21 = sub i64 %20, %10
  %22 = getelementptr inbounds nuw i8, ptr %0, i64 3
  %23 = load i8, ptr %22, align 1, !tbaa !25
  switch i8 %23, label %26 [
    i8 6, label %24
    i8 1, label %24
  ]

24:                                               ; preds = %3, %3
  store i8 0, ptr %22, align 1, !tbaa !25
  %25 = load ptr, ptr %17, align 8, !tbaa !26
  store ptr %25, ptr %5, align 8, !tbaa !4
  br label %26

26:                                               ; preds = %3, %24
  %27 = getelementptr inbounds nuw i8, ptr %17, i64 24
  %28 = load ptr, ptr %27, align 8, !tbaa !27
  %.not = icmp eq ptr %28, null
  br i1 %.not, label %31, label %29

29:                                               ; preds = %26
  %30 = getelementptr inbounds nuw i8, ptr %28, i64 4
  store ptr %30, ptr %27, align 8, !tbaa !27
  br label %31

31:                                               ; preds = %29, %26
  %32 = getelementptr inbounds nuw i8, ptr %0, i64 40
  %33 = load ptr, ptr %32, align 8, !tbaa !28
  %34 = ptrtoint ptr %33 to i64
  %35 = sub i64 %34, %14
  %36 = icmp slt i64 %35, 321
  br i1 %36, label %37, label %38

37:                                               ; preds = %31
  tail call void @_Z14luaD_growstackP9lua_Statei(ptr noundef nonnull %0, i32 noundef 20)
  %.pre = load ptr, ptr %12, align 8, !tbaa !20
  %.pre53 = load ptr, ptr %16, align 8, !tbaa !21
  br label %38

38:                                               ; preds = %31, %37
  %39 = phi ptr [ %17, %31 ], [ %.pre53, %37 ]
  %40 = phi ptr [ %13, %31 ], [ %.pre, %37 ]
  %41 = getelementptr inbounds nuw i8, ptr %40, i64 320
  %42 = getelementptr inbounds nuw i8, ptr %39, i64 16
  store ptr %41, ptr %42, align 8, !tbaa !22
  %43 = getelementptr inbounds nuw i8, ptr %39, i64 8
  %44 = load ptr, ptr %43, align 8, !tbaa !29
  %45 = load ptr, ptr %44, align 8, !tbaa !30
  call void @llvm.lifetime.start.p0(i64 312, ptr nonnull %4) #9
  %46 = getelementptr inbounds nuw i8, ptr %45, i64 3
  %47 = load i8, ptr %46, align 1, !tbaa !31
  %.not49 = icmp eq i8 %47, 0
  br i1 %.not49, label %48, label %65

48:                                               ; preds = %38
  %49 = getelementptr inbounds nuw i8, ptr %45, i64 24
  %50 = load ptr, ptr %49, align 8, !tbaa !30
  %51 = getelementptr inbounds nuw i8, ptr %39, i64 24
  %52 = load ptr, ptr %51, align 8, !tbaa !27
  %.not50 = icmp eq ptr %52, null
  br i1 %.not50, label %62, label %53

53:                                               ; preds = %48
  %54 = getelementptr inbounds nuw i8, ptr %50, i64 16
  %55 = load ptr, ptr %54, align 8, !tbaa !33
  %56 = ptrtoint ptr %52 to i64
  %57 = ptrtoint ptr %55 to i64
  %58 = sub i64 %56, %57
  %59 = lshr exact i64 %58, 2
  %60 = trunc i64 %59 to i32
  %61 = add nsw i32 %60, -1
  br label %62

62:                                               ; preds = %48, %53
  %63 = phi i32 [ %61, %53 ], [ 0, %48 ]
  %64 = tail call noundef i32 @_Z12luaG_getlineP5Protoi(ptr noundef %50, i32 noundef %63)
  br label %65

65:                                               ; preds = %38, %62
  %66 = phi i32 [ %64, %62 ], [ -1, %38 ]
  %67 = getelementptr inbounds nuw i8, ptr %4, i64 36
  store i32 %66, ptr %67, align 4, !tbaa !41
  %68 = getelementptr inbounds nuw i8, ptr %4, i64 48
  store ptr %2, ptr %68, align 8, !tbaa !43
  call void %1(ptr noundef nonnull %0, ptr noundef nonnull %4)
  %69 = load ptr, ptr %16, align 8, !tbaa !21
  %70 = getelementptr inbounds nuw i8, ptr %69, i64 24
  %71 = load ptr, ptr %70, align 8, !tbaa !27
  %.not51 = icmp eq ptr %71, null
  br i1 %.not51, label %74, label %72

72:                                               ; preds = %65
  %73 = getelementptr inbounds i8, ptr %71, i64 -4
  store ptr %73, ptr %70, align 8, !tbaa !27
  br label %74

74:                                               ; preds = %72, %65
  %75 = load ptr, ptr %7, align 8, !tbaa !19
  %76 = getelementptr inbounds i8, ptr %75, i64 %21
  %77 = getelementptr inbounds nuw i8, ptr %69, i64 16
  store ptr %76, ptr %77, align 8, !tbaa !22
  %78 = getelementptr inbounds i8, ptr %75, i64 %15
  store ptr %78, ptr %12, align 8, !tbaa !20
  switch i8 %23, label %82 [
    i8 1, label %79
    i8 6, label %.sink.split
  ]

79:                                               ; preds = %74
  %80 = load i8, ptr %22, align 1, !tbaa !25
  %.not52 = icmp eq i8 %80, 1
  br i1 %.not52, label %82, label %.sink.split

.sink.split:                                      ; preds = %74, %79
  store i8 %23, ptr %22, align 1, !tbaa !25
  %81 = getelementptr inbounds i8, ptr %75, i64 %11
  store ptr %81, ptr %5, align 8, !tbaa !4
  br label %82

82:                                               ; preds = %.sink.split, %79, %74
  call void @llvm.lifetime.end.p0(i64 312, ptr nonnull %4) #9
  ret void
}